; Function Attrs: mustprogress nofree norecurse nosync nounwind willreturn memory(readwrite, inaccessiblemem: none) uwtable
define void @_ZN16b2PrismaticJoint9SetLimitsEff(ptr nocapture noundef nonnull align 8 dereferenceable(300) %this, float noundef %lower, float noundef %upper) local_unnamed_addr #9 align 2 {
entry:
  %m_lowerTranslation = getelementptr inbounds i8, ptr %this, i64 184
  %0 = load float, ptr %m_lowerTranslation, align 8
  %cmp = fcmp une float %0, %lower
  %m_upperTranslation = getelementptr inbounds i8, ptr %this, i64 188
  %1 = load float, ptr %m_upperTranslation, align 4
  %cmp2 = fcmp une float %1, %upper
  %or.cond = select i1 %cmp, i1 true, i1 %cmp2
  br i1 %or.cond, label %if.then, label %if.end

if.then:                                          ; preds = %entry
  %m_bodyA = getelementptr inbounds i8, ptr %this, i64 96
  %2 = load ptr, ptr %m_bodyA, align 8
  %3 = load i32, ptr %2, align 8
  %cmp.i = icmp eq i32 %3, 0
  br i1 %cmp.i, label %_ZN6b2Body8SetAwakeEb.exit, label %if.end.i

if.end.i:                                         ; preds = %if.then
  %m_flags.i = getelementptr inbounds i8, ptr %2, i64 4
  %4 = load i16, ptr %m_flags.i, align 4
  %m_sleepTime.i = getelementptr inbounds i8, ptr %2, i64 172
  %5 = or i16 %4, 2
  store i16 %5, ptr %m_flags.i, align 4
  store float 0.000000e+00, ptr %m_sleepTime.i, align 4
  br label %_ZN6b2Body8SetAwakeEb.exit

_ZN6b2Body8SetAwakeEb.exit:                       ; preds = %if.then, %if.end.i
  %m_bodyB = getelementptr inbounds i8, ptr %this, i64 104
  %6 = load ptr, ptr %m_bodyB, align 8
  %7 = load i32, ptr %6, align 8
  %cmp.i3 = icmp eq i32 %7, 0
  br i1 %cmp.i3, label %_ZN6b2Body8SetAwakeEb.exit7, label %if.end.i4

if.end.i4:                                        ; preds = %_ZN6b2Body8SetAwakeEb.exit
  %m_flags.i5 = getelementptr inbounds i8, ptr %6, i64 4
  %8 = load i16, ptr %m_flags.i5, align 4
  %m_sleepTime.i6 = getelementptr inbounds i8, ptr %6, i64 172
  %9 = or i16 %8, 2
  store i16 %9, ptr %m_flags.i5, align 4
  store float 0.000000e+00, ptr %m_sleepTime.i6, align 4
  br label %_ZN6b2Body8SetAwakeEb.exit7

_ZN6b2Body8SetAwakeEb.exit7:                      ; preds = %_ZN6b2Body8SetAwakeEb.exit, %if.end.i4
  store float %lower, ptr %m_lowerTranslation, align 8
  store float %upper, ptr %m_upperTranslation, align 4
  %m_lowerImpulse = getelementptr inbounds i8, ptr %this, i64 176
  store <2 x float> zeroinitializer, ptr %m_lowerImpulse, align 8
  br label %if.end

if.end:                                           ; preds = %entry, %_ZN6b2Body8SetAwakeEb.exit7
  ret void
}